; Function Attrs: mustprogress nofree norecurse nosync nounwind willreturn memory(none) uwtable
define { <2 x float>, float } @pxr_nc_1_0_YxyToXYZ(<2 x float> %0, float %1) local_unnamed_addr #13 {
  %.sroa.03.0.vec.extract = extractelement <2 x float> %0, i64 0
  %.sroa.03.4.vec.extract = extractelement <2 x float> %0, i64 1
  %3 = fmul float %.sroa.03.0.vec.extract, %.sroa.03.4.vec.extract
  %4 = fdiv float %3, %1
  %.sroa.012.0.vec.insert = insertelement <2 x float> poison, float %4, i64 0
  %.sroa.012.4.vec.insert = shufflevector <2 x float> %.sroa.012.0.vec.insert, <2 x float> %0, <2 x i32> <i32 0, i32 2>
  %5 = fsub float 1.000000e+00, %.sroa.03.4.vec.extract
  %6 = fsub float %5, %1
  %7 = fmul float %.sroa.03.0.vec.extract, %6
  %8 = fdiv float %7, %1
  %.fca.0.insert = insertvalue { <2 x float>, float } poison, <2 x float> %.sroa.012.4.vec.insert, 0
  %.fca.1.insert = insertvalue { <2 x float>, float } %.fca.0.insert, float %8, 1
  ret { <2 x float>, float } %.fca.1.insert
}